target datalayout = "e-m:e-p270:32:32-p271:32:32-p272:64:64-i64:64-i128:128-f80:128-n8:16:32:64-S128"
target triple = "x86_64-unknown-linux-gnu"

%"class.std::set.0" = type { %"class.std::_Rb_tree.1" }
%"class.std::_Rb_tree.1" = type { %"struct.std::_Rb_tree<QuantLib::Observer *, QuantLib::Observer *, std::_Identity<QuantLib::Observer *>, std::less<QuantLib::Observer *>>::_Rb_tree_impl" }
%"struct.std::_Rb_tree<QuantLib::Observer *, QuantLib::Observer *, std::_Identity<QuantLib::Observer *>, std::less<QuantLib::Observer *>>::_Rb_tree_impl" = type { [8 x i8], %"struct.std::_Rb_tree_header" }
%"struct.std::_Rb_tree_header" = type { %"struct.std::_Rb_tree_node_base", i64 }
%"struct.std::_Rb_tree_node_base" = type { i32, ptr, ptr, ptr }
%"class.std::set" = type { %"class.std::_Rb_tree" }
%"class.std::_Rb_tree" = type { %"struct.std::_Rb_tree<boost::shared_ptr<QuantLib::Observable>, boost::shared_ptr<QuantLib::Observable>, std::_Identity<boost::shared_ptr<QuantLib::Observable>>, std::less<boost::shared_ptr<QuantLib::Observable>>>::_Rb_tree_impl" }
%"struct.std::_Rb_tree<boost::shared_ptr<QuantLib::Observable>, boost::shared_ptr<QuantLib::Observable>, std::_Identity<boost::shared_ptr<QuantLib::Observable>>, std::less<boost::shared_ptr<QuantLib::Observable>>>::_Rb_tree_impl" = type { [8 x i8], %"struct.std::_Rb_tree_header" }
%"class.boost::detail::shared_count" = type { ptr }
%"class.QuantLib::Observable" = type { ptr, %"class.std::set.0" }
%"class.QuantLib::Observer" = type { ptr, %"class.std::set" }
%"class.QuantLib::Date" = type { i64 }
%"class.std::map" = type { %"class.std::_Rb_tree.10" }
%"class.std::_Rb_tree.10" = type { %"struct.std::_Rb_tree<std::__cxx11::basic_string<char>, std::pair<const std::__cxx11::basic_string<char>, boost::any>, std::_Select1st<std::pair<const std::__cxx11::basic_string<char>, boost::any>>, std::less<std::__cxx11::basic_string<char>>>::_Rb_tree_impl" }
%"struct.std::_Rb_tree<std::__cxx11::basic_string<char>, std::pair<const std::__cxx11::basic_string<char>, boost::any>, std::_Select1st<std::pair<const std::__cxx11::basic_string<char>, boost::any>>, std::less<std::__cxx11::basic_string<char>>>::_Rb_tree_impl" = type { [8 x i8], %"struct.std::_Rb_tree_header" }
%"class.boost::shared_ptr.16" = type { ptr, %"class.boost::detail::shared_count" }
%"class.boost::shared_ptr.17" = type { ptr, %"class.boost::detail::shared_count" }
%"class.QuantLib::Option::arguments" = type { %"class.QuantLib::PricingEngine::arguments", %"class.boost::shared_ptr.16", %"class.boost::shared_ptr.17" }
%"class.QuantLib::PricingEngine::arguments" = type { ptr }
%"class.QuantLib::DoubleBarrierOption::arguments" = type { %"class.QuantLib::Option::arguments", i32, double, double, double }
%"class.QuantLib::GenericEngine" = type { %"class.QuantLib::PricingEngine", %"class.QuantLib::Observer", %"class.QuantLib::DoubleBarrierOption::arguments", %"class.QuantLib::OneAssetOption::results" }
%"class.QuantLib::PricingEngine" = type { %"class.QuantLib::Observable" }
%"class.QuantLib::OneAssetOption::results" = type { %"class.QuantLib::Instrument::results", %"class.QuantLib::Greeks", %"class.QuantLib::MoreGreeks" }
%"class.QuantLib::Instrument::results" = type { %"class.QuantLib::PricingEngine::results", double, double, %"class.QuantLib::Date", %"class.std::map" }
%"class.QuantLib::PricingEngine::results" = type { ptr }
%"class.QuantLib::Greeks" = type { %"class.QuantLib::PricingEngine::results", double, double, double, double, double, double }
%"class.QuantLib::MoreGreeks" = type { %"class.QuantLib::PricingEngine::results", double, double, double, double, double }

; Function Attrs: mustprogress nounwind uwtable
define noundef zeroext i1 @_ZNK8QuantLib19DoubleBarrierOption6engine9triggeredEd(ptr noundef nonnull align 8 dereferenceable(368) %this, double noundef %underlying) #1 align 2 {
entry:
  %this.addr = alloca ptr, align 8
  %underlying.addr = alloca double, align 8
  store ptr %this, ptr %this.addr, align 8, !tbaa !3
  store double %underlying, ptr %underlying.addr, align 8, !tbaa !30
  %this1 = load ptr, ptr %this.addr, align 8
  %0 = load double, ptr %underlying.addr, align 8, !tbaa !30
  %arguments_ = getelementptr inbounds nuw %"class.QuantLib::GenericEngine", ptr %this1, i32 0, i32 2
  %barrier_lo = getelementptr inbounds nuw %"class.QuantLib::DoubleBarrierOption::arguments", ptr %arguments_, i32 0, i32 2
  %1 = load double, ptr %barrier_lo, align 8, !tbaa !72
  %cmp = fcmp ole double %0, %1
  br i1 %cmp, label %lor.end, label %lor.rhs

lor.rhs:                                          ; preds = %entry
  %2 = load double, ptr %underlying.addr, align 8, !tbaa !30
  %arguments_2 = getelementptr inbounds nuw %"class.QuantLib::GenericEngine", ptr %this1, i32 0, i32 2
  %barrier_hi = getelementptr inbounds nuw %"class.QuantLib::DoubleBarrierOption::arguments", ptr %arguments_2, i32 0, i32 3
  %3 = load double, ptr %barrier_hi, align 8, !tbaa !91
  %cmp3 = fcmp oge double %2, %3
  br label %lor.end

lor.end:                                          ; preds = %lor.rhs, %entry
  %4 = phi i1 [ true, %entry ], [ %cmp3, %lor.rhs ]
  ret i1 %4
}