; Function Attrs: mustprogress nofree norecurse nosync nounwind willreturn memory(argmem: read) uwtable
define noundef zeroext i1 @_ZNK8QuantLib19DoubleBarrierOption6engine9triggeredEd(ptr nocapture noundef nonnull readonly align 8 dereferenceable(368) %this, double noundef %underlying) local_unnamed_addr #17 align 2 {
entry:
  %barrier_lo = getelementptr inbounds nuw i8, ptr %this, i64 160
  %0 = load double, ptr %barrier_lo, align 8, !tbaa !97
  %cmp = fcmp ole double %underlying, %0
  %barrier_hi = getelementptr inbounds nuw i8, ptr %this, i64 168
  %1 = load double, ptr %barrier_hi, align 8
  %cmp3 = fcmp oge double %underlying, %1
  %2 = select i1 %cmp, i1 true, i1 %cmp3
  ret i1 %2
}